; Function Attrs: mustprogress uwtable
define noundef nonnull align 8 dereferenceable(64) ptr @_ZNK6icu_756Format6formatERKNS_11FormattableERNS_13UnicodeStringER10UErrorCode(ptr noundef nonnull align 8 dereferenceable(322) %this, ptr noundef nonnull align 8 dereferenceable(112) %obj, ptr noundef nonnull align 8 dereferenceable(64) %toAppendTo, ptr noundef nonnull align 4 dereferenceable(4) %status) local_unnamed_addr #8 align 2 personality ptr @__gxx_personality_v0 {
entry:
  %pos = alloca %"class.icu_75::FieldPosition", align 8
  %0 = load i32, ptr %status, align 4
  %cmp.i = icmp slt i32 %0, 1
  br i1 %cmp.i, label %if.end, label %return

if.end:                                           ; preds = %entry
  store ptr getelementptr inbounds ({ [5 x ptr] }, ptr @_ZTVN6icu_7513FieldPositionE, i64 0, i32 0, i64 2), ptr %pos, align 8
  %fField.i = getelementptr inbounds i8, ptr %pos, i64 8
  store i32 -1, ptr %fField.i, align 8
  %fBeginIndex.i = getelementptr inbounds i8, ptr %pos, i64 12
  store i32 0, ptr %fBeginIndex.i, align 4
  %fEndIndex.i = getelementptr inbounds i8, ptr %pos, i64 16
  store i32 0, ptr %fEndIndex.i, align 8
  %vtable = load ptr, ptr %this, align 8
  %vfn = getelementptr inbounds i8, ptr %vtable, i64 40
  %1 = load ptr, ptr %vfn, align 8
  %call2 = invoke noundef nonnull align 8 dereferenceable(64) ptr %1(ptr noundef nonnull align 8 dereferenceable(322) %this, ptr noundef nonnull align 8 dereferenceable(112) %obj, ptr noundef nonnull align 8 dereferenceable(64) %toAppendTo, ptr noundef nonnull align 8 dereferenceable(20) %pos, ptr noundef nonnull align 4 dereferenceable(4) %status)
          to label %invoke.cont unwind label %lpad

invoke.cont:                                      ; preds = %if.end
  call void @_ZN6icu_7513FieldPositionD1Ev(ptr noundef nonnull align 8 dereferenceable(20) %pos) #13
  br label %return

lpad:                                             ; preds = %if.end
  %2 = landingpad { ptr, i32 }
          cleanup
  call void @_ZN6icu_7513FieldPositionD1Ev(ptr noundef nonnull align 8 dereferenceable(20) %pos) #13
  resume { ptr, i32 } %2

return:                                           ; preds = %entry, %invoke.cont
  %retval.0 = phi ptr [ %call2, %invoke.cont ], [ %toAppendTo, %entry ]
  ret ptr %retval.0
}